; Function Attrs: mustprogress uwtable
define noundef nonnull align 8 dereferenceable(8) ptr @_ZN4datelsERSoRKNS_4tzdbE(ptr noundef nonnull returned align 8 dereferenceable(8) %os, ptr noundef nonnull align 8 dereferenceable(88) %db) local_unnamed_addr #7 {
entry:
  %call = tail call noundef nonnull align 8 dereferenceable(8) ptr @_ZStlsISt11char_traitsIcEERSt13basic_ostreamIcT_ES5_PKc(ptr noundef nonnull align 8 dereferenceable(8) %os, ptr noundef nonnull @.str.6)
  %call1 = tail call noundef nonnull align 8 dereferenceable(8) ptr @_ZStlsIcSt11char_traitsIcESaIcEERSt13basic_ostreamIT_T0_ES7_RKNSt7__cxx1112basic_stringIS4_S5_T1_EE(ptr noundef nonnull align 8 dereferenceable(8) %call, ptr noundef nonnull align 8 dereferenceable(32) %db)
  %call2 = tail call noundef nonnull align 8 dereferenceable(8) ptr @_ZStlsISt11char_traitsIcEERSt13basic_ostreamIcT_ES5_PKc(ptr noundef nonnull align 8 dereferenceable(8) %call1, ptr noundef nonnull @.str.7)
  %zones = getelementptr inbounds i8, ptr %db, i64 32
  %0 = load ptr, ptr %zones, align 8
  %_M_finish.i = getelementptr inbounds i8, ptr %db, i64 40
  %1 = load ptr, ptr %_M_finish.i, align 8
  %cmp.i.not16 = icmp eq ptr %0, %1
  br i1 %cmp.i.not16, label %for.end, label %for.body

for.body:                                         ; preds = %entry, %for.body
  %__begin1.sroa.0.017 = phi ptr [ %incdec.ptr.i, %for.body ], [ %0, %entry ]
  %call8 = tail call noundef nonnull align 8 dereferenceable(8) ptr @_ZN4datelsERSoRKNS_9time_zoneE(ptr noundef nonnull align 8 dereferenceable(8) %os, ptr noundef nonnull align 8 dereferenceable(88) %__begin1.sroa.0.017)
  %call9 = tail call noundef nonnull align 8 dereferenceable(8) ptr @_ZStlsISt11char_traitsIcEERSt13basic_ostreamIcT_ES5_c(ptr noundef nonnull align 8 dereferenceable(8) %os, i8 noundef signext 10)
  %incdec.ptr.i = getelementptr inbounds i8, ptr %__begin1.sroa.0.017, i64 88
  %cmp.i.not = icmp eq ptr %incdec.ptr.i, %1
  br i1 %cmp.i.not, label %for.end, label %for.body

for.end:                                          ; preds = %for.body, %entry
  %call11 = tail call noundef nonnull align 8 dereferenceable(8) ptr @_ZStlsISt11char_traitsIcEERSt13basic_ostreamIcT_ES5_c(ptr noundef nonnull align 8 dereferenceable(8) %os, i8 noundef signext 10)
  %leap_seconds = getelementptr inbounds i8, ptr %db, i64 56
  %2 = load ptr, ptr %leap_seconds, align 8
  %_M_finish.i9 = getelementptr inbounds i8, ptr %db, i64 64
  %3 = load ptr, ptr %_M_finish.i9, align 8
  %cmp.i10.not18 = icmp eq ptr %2, %3
  br i1 %cmp.i10.not18, label %for.end28, label %for.body21

for.body21:                                       ; preds = %for.end, %for.body21
  %__begin113.sroa.0.019 = phi ptr [ %incdec.ptr.i11, %for.body21 ], [ %2, %for.end ]
  %call.i = tail call noundef nonnull align 8 dereferenceable(8) ptr @_ZN4datelsIcSt11char_traitsIcENSt6chrono8durationIlSt5ratioILl1ELl1EEEEEENSt9enable_ifIXaantsr3std6chrono23treat_as_floating_pointINT1_3repEEE5valuesr3std10ratio_lessINS9_6periodES5_ILl86400ELl1EEEE5valueERSt13basic_ostreamIT_T0_EE4typeESH_RKNS3_10time_pointINS3_3_V212system_clockES9_EE(ptr noundef nonnull align 8 dereferenceable(8) %os, ptr noundef nonnull align 8 dereferenceable(8) %__begin113.sroa.0.019)
  %call1.i = tail call noundef nonnull align 8 dereferenceable(8) ptr @_ZStlsISt11char_traitsIcEERSt13basic_ostreamIcT_ES5_PKc(ptr noundef nonnull align 8 dereferenceable(8) %call.i, ptr noundef nonnull @.str.4)
  %call25 = tail call noundef nonnull align 8 dereferenceable(8) ptr @_ZStlsISt11char_traitsIcEERSt13basic_ostreamIcT_ES5_c(ptr noundef nonnull align 8 dereferenceable(8) %call1.i, i8 noundef signext 10)
  %incdec.ptr.i11 = getelementptr inbounds i8, ptr %__begin113.sroa.0.019, i64 8
  %cmp.i10.not = icmp eq ptr %incdec.ptr.i11, %3
  br i1 %cmp.i10.not, label %for.end28, label %for.body21

for.end28:                                        ; preds = %for.body21, %for.end
  ret ptr %os
}